; Function Attrs: nounwind uwtable
define dso_local void @destroy_gres_device(ptr noundef %0) #2 {
  %2 = alloca ptr, align 8
  call void @llvm.lifetime.start.p0(i64 8, ptr nonnull %2) #28
  store ptr %0, ptr %2, align 8
  %.not = icmp eq ptr %0, null
  br i1 %.not, label %6, label %3

3:                                                ; preds = %1
  %4 = getelementptr inbounds nuw i8, ptr %0, i64 24
  tail call void @slurm_xfree(ptr noundef nonnull %4) #28
  %5 = getelementptr inbounds nuw i8, ptr %0, i64 32
  tail call void @slurm_xfree(ptr noundef nonnull %5) #28
  call void @slurm_xfree(ptr noundef nonnull %2) #28
  br label %6

6:                                                ; preds = %1, %3
  call void @llvm.lifetime.end.p0(i64 8, ptr nonnull %2) #28
  ret void
}